target datalayout = "e-m:e-p270:32:32-p271:32:32-p272:64:64-i64:64-i128:128-f80:128-n8:16:32:64-S128"
target triple = "x86_64-pc-linux-gnu"

%struct.Abc_Ntk_t_ = type { i32, i32, ptr, ptr, ptr, ptr, ptr, ptr, ptr, ptr, ptr, ptr, ptr, [11 x i32], i32, i32, i32, i32, ptr, i32, ptr, ptr, i32, i32, i32, double, i32, %struct.Vec_Int_t_, ptr, ptr, ptr, ptr, ptr, float, i32, ptr, ptr, ptr, ptr, ptr, ptr, ptr, ptr, ptr, ptr, ptr, ptr, ptr, ptr, ptr, ptr, ptr, ptr, ptr, ptr, ptr, ptr }
%struct.Vec_Int_t_ = type { i32, i32, ptr }
%struct.Vec_Ptr_t_ = type { i32, i32, ptr }
%struct.Buf_Man_t_ = type { i32, i32, i32, ptr, ptr, ptr, ptr, ptr, ptr, ptr, i32, i32, i32, float, ptr, ptr, ptr, ptr, ptr, i32, i32, i32, i32, i32 }
%struct.Vec_Flt_t_ = type { i32, i32, ptr }
%struct.Vec_Que_t_ = type { i32, i32, ptr, ptr, ptr }

@.str.14 = private unnamed_addr constant [52 x i8] c"Sep = %d. Dup = %d. Br0 = %d. Br1 = %d. BrC = %d.  \00", align 1
@.str.15 = private unnamed_addr constant [32 x i8] c"Orig = %d. Add = %d. Rem = %d.\0A\00", align 1

; Function Attrs: inlinehint nounwind uwtable
define internal i32 @Vec_PtrSize(ptr noundef %0) #2 {
  %2 = alloca ptr, align 8
  store ptr %0, ptr %2, align 8, !tbaa !32
  %3 = load ptr, ptr %2, align 8, !tbaa !32
  %4 = getelementptr inbounds nuw %struct.Vec_Ptr_t_, ptr %3, i32 0, i32 1
  %5 = load i32, ptr %4, align 4, !tbaa !33
  ret i32 %5
}

; Function Attrs: inlinehint nounwind uwtable
define internal void @Vec_FltFree(ptr noundef %0) #2 {
  %2 = alloca ptr, align 8
  store ptr %0, ptr %2, align 8, !tbaa !105
  %3 = load ptr, ptr %2, align 8, !tbaa !105
  %4 = getelementptr inbounds nuw %struct.Vec_Flt_t_, ptr %3, i32 0, i32 2
  %5 = load ptr, ptr %4, align 8, !tbaa !106
  %6 = icmp ne ptr %5, null
  br i1 %6, label %7, label %13

7:                                                ; preds = %1
  %8 = load ptr, ptr %2, align 8, !tbaa !105
  %9 = getelementptr inbounds nuw %struct.Vec_Flt_t_, ptr %8, i32 0, i32 2
  %10 = load ptr, ptr %9, align 8, !tbaa !106
  call void @free(ptr noundef %10) #9
  %11 = load ptr, ptr %2, align 8, !tbaa !105
  %12 = getelementptr inbounds nuw %struct.Vec_Flt_t_, ptr %11, i32 0, i32 2
  store ptr null, ptr %12, align 8, !tbaa !106
  br label %14

13:                                               ; preds = %1
  br label %14

14:                                               ; preds = %13, %7
  %15 = load ptr, ptr %2, align 8, !tbaa !105
  %16 = icmp ne ptr %15, null
  br i1 %16, label %17, label %19

17:                                               ; preds = %14
  %18 = load ptr, ptr %2, align 8, !tbaa !105
  call void @free(ptr noundef %18) #9
  store ptr null, ptr %2, align 8, !tbaa !105
  br label %20

19:                                               ; preds = %14
  br label %20

20:                                               ; preds = %19, %17
  ret void
}

; Function Attrs: inlinehint nounwind uwtable
define internal void @Vec_QueFree(ptr noundef %0) #2 {
  %2 = alloca ptr, align 8
  store ptr %0, ptr %2, align 8, !tbaa !108
  %3 = load ptr, ptr %2, align 8, !tbaa !108
  %4 = getelementptr inbounds nuw %struct.Vec_Que_t_, ptr %3, i32 0, i32 3
  %5 = load ptr, ptr %4, align 8, !tbaa !112
  %6 = icmp ne ptr %5, null
  br i1 %6, label %7, label %13

7:                                                ; preds = %1
  %8 = load ptr, ptr %2, align 8, !tbaa !108
  %9 = getelementptr inbounds nuw %struct.Vec_Que_t_, ptr %8, i32 0, i32 3
  %10 = load ptr, ptr %9, align 8, !tbaa !112
  call void @free(ptr noundef %10) #9
  %11 = load ptr, ptr %2, align 8, !tbaa !108
  %12 = getelementptr inbounds nuw %struct.Vec_Que_t_, ptr %11, i32 0, i32 3
  store ptr null, ptr %12, align 8, !tbaa !112
  br label %14

13:                                               ; preds = %1
  br label %14

14:                                               ; preds = %13, %7
  %15 = load ptr, ptr %2, align 8, !tbaa !108
  %16 = getelementptr inbounds nuw %struct.Vec_Que_t_, ptr %15, i32 0, i32 2
  %17 = load ptr, ptr %16, align 8, !tbaa !114
  %18 = icmp ne ptr %17, null
  br i1 %18, label %19, label %25

19:                                               ; preds = %14
  %20 = load ptr, ptr %2, align 8, !tbaa !108
  %21 = getelementptr inbounds nuw %struct.Vec_Que_t_, ptr %20, i32 0, i32 2
  %22 = load ptr, ptr %21, align 8, !tbaa !114
  call void @free(ptr noundef %22) #9
  %23 = load ptr, ptr %2, align 8, !tbaa !108
  %24 = getelementptr inbounds nuw %struct.Vec_Que_t_, ptr %23, i32 0, i32 2
  store ptr null, ptr %24, align 8, !tbaa !114
  br label %26

25:                                               ; preds = %14
  br label %26

26:                                               ; preds = %25, %19
  %27 = load ptr, ptr %2, align 8, !tbaa !108
  %28 = icmp ne ptr %27, null
  br i1 %28, label %29, label %31

29:                                               ; preds = %26
  %30 = load ptr, ptr %2, align 8, !tbaa !108
  call void @free(ptr noundef %30) #9
  store ptr null, ptr %2, align 8, !tbaa !108
  br label %32

31:                                               ; preds = %26
  br label %32

32:                                               ; preds = %31, %29
  ret void
}

; Function Attrs: inlinehint nounwind uwtable
define internal void @Vec_IntFree(ptr noundef %0) #2 {
  %2 = alloca ptr, align 8
  store ptr %0, ptr %2, align 8, !tbaa !43
  %3 = load ptr, ptr %2, align 8, !tbaa !43
  %4 = getelementptr inbounds nuw %struct.Vec_Int_t_, ptr %3, i32 0, i32 2
  %5 = load ptr, ptr %4, align 8, !tbaa !48
  %6 = icmp ne ptr %5, null
  br i1 %6, label %7, label %13

7:                                                ; preds = %1
  %8 = load ptr, ptr %2, align 8, !tbaa !43
  %9 = getelementptr inbounds nuw %struct.Vec_Int_t_, ptr %8, i32 0, i32 2
  %10 = load ptr, ptr %9, align 8, !tbaa !48
  call void @free(ptr noundef %10) #9
  %11 = load ptr, ptr %2, align 8, !tbaa !43
  %12 = getelementptr inbounds nuw %struct.Vec_Int_t_, ptr %11, i32 0, i32 2
  store ptr null, ptr %12, align 8, !tbaa !48
  br label %14

13:                                               ; preds = %1
  br label %14

14:                                               ; preds = %13, %7
  %15 = load ptr, ptr %2, align 8, !tbaa !43
  %16 = icmp ne ptr %15, null
  br i1 %16, label %17, label %19

17:                                               ; preds = %14
  %18 = load ptr, ptr %2, align 8, !tbaa !43
  call void @free(ptr noundef %18) #9
  store ptr null, ptr %2, align 8, !tbaa !43
  br label %20

19:                                               ; preds = %14
  br label %20

20:                                               ; preds = %19, %17
  ret void
}

; Function Attrs: inlinehint nounwind uwtable
define internal void @Vec_PtrFree(ptr noundef %0) #2 {
  %2 = alloca ptr, align 8
  store ptr %0, ptr %2, align 8, !tbaa !32
  %3 = load ptr, ptr %2, align 8, !tbaa !32
  %4 = getelementptr inbounds nuw %struct.Vec_Ptr_t_, ptr %3, i32 0, i32 2
  %5 = load ptr, ptr %4, align 8, !tbaa !38
  %6 = icmp ne ptr %5, null
  br i1 %6, label %7, label %13

7:                                                ; preds = %1
  %8 = load ptr, ptr %2, align 8, !tbaa !32
  %9 = getelementptr inbounds nuw %struct.Vec_Ptr_t_, ptr %8, i32 0, i32 2
  %10 = load ptr, ptr %9, align 8, !tbaa !38
  call void @free(ptr noundef %10) #9
  %11 = load ptr, ptr %2, align 8, !tbaa !32
  %12 = getelementptr inbounds nuw %struct.Vec_Ptr_t_, ptr %11, i32 0, i32 2
  store ptr null, ptr %12, align 8, !tbaa !38
  br label %14

13:                                               ; preds = %1
  br label %14

14:                                               ; preds = %13, %7
  %15 = load ptr, ptr %2, align 8, !tbaa !32
  %16 = icmp ne ptr %15, null
  br i1 %16, label %17, label %19

17:                                               ; preds = %14
  %18 = load ptr, ptr %2, align 8, !tbaa !32
  call void @free(ptr noundef %18) #9
  store ptr null, ptr %2, align 8, !tbaa !32
  br label %20

19:                                               ; preds = %14
  br label %20

20:                                               ; preds = %19, %17
  ret void
}

; Function Attrs: inlinehint nounwind uwtable
define internal i32 @Abc_NtkObjNumMax(ptr noundef %0) #2 {
  %2 = alloca ptr, align 8
  store ptr %0, ptr %2, align 8, !tbaa !3
  %3 = load ptr, ptr %2, align 8, !tbaa !3
  %4 = getelementptr inbounds nuw %struct.Abc_Ntk_t_, ptr %3, i32 0, i32 5
  %5 = load ptr, ptr %4, align 8, !tbaa !10
  %6 = call i32 @Vec_PtrSize(ptr noundef %5)
  ret i32 %6
}

; Function Attrs: nounwind uwtable
define void @Buf_ManStop(ptr noundef %0) #0 {
  %2 = alloca ptr, align 8
  store ptr %0, ptr %2, align 8, !tbaa !81
  %3 = load ptr, ptr %2, align 8, !tbaa !81
  %4 = getelementptr inbounds nuw %struct.Buf_Man_t_, ptr %3, i32 0, i32 19
  %5 = load i32, ptr %4, align 8, !tbaa !140
  %6 = load ptr, ptr %2, align 8, !tbaa !81
  %7 = getelementptr inbounds nuw %struct.Buf_Man_t_, ptr %6, i32 0, i32 20
  %8 = load i32, ptr %7, align 4, !tbaa !141
  %9 = load ptr, ptr %2, align 8, !tbaa !81
  %10 = getelementptr inbounds nuw %struct.Buf_Man_t_, ptr %9, i32 0, i32 21
  %11 = load i32, ptr %10, align 8, !tbaa !142
  %12 = load ptr, ptr %2, align 8, !tbaa !81
  %13 = getelementptr inbounds nuw %struct.Buf_Man_t_, ptr %12, i32 0, i32 22
  %14 = load i32, ptr %13, align 4, !tbaa !143
  %15 = load ptr, ptr %2, align 8, !tbaa !81
  %16 = getelementptr inbounds nuw %struct.Buf_Man_t_, ptr %15, i32 0, i32 23
  %17 = load i32, ptr %16, align 8, !tbaa !144
  %18 = call i32 (ptr, ...) @printf(ptr noundef @.str.14, i32 noundef %5, i32 noundef %8, i32 noundef %11, i32 noundef %14, i32 noundef %17)
  %19 = load ptr, ptr %2, align 8, !tbaa !81
  %20 = getelementptr inbounds nuw %struct.Buf_Man_t_, ptr %19, i32 0, i32 10
  %21 = load i32, ptr %20, align 8, !tbaa !122
  %22 = load ptr, ptr %2, align 8, !tbaa !81
  %23 = getelementptr inbounds nuw %struct.Buf_Man_t_, ptr %22, i32 0, i32 3
  %24 = load ptr, ptr %23, align 8, !tbaa !94
  %25 = call i32 @Abc_NtkObjNumMax(ptr noundef %24)
  %26 = load ptr, ptr %2, align 8, !tbaa !81
  %27 = getelementptr inbounds nuw %struct.Buf_Man_t_, ptr %26, i32 0, i32 10
  %28 = load i32, ptr %27, align 8, !tbaa !122
  %29 = sub nsw i32 %25, %28
  %30 = load ptr, ptr %2, align 8, !tbaa !81
  %31 = getelementptr inbounds nuw %struct.Buf_Man_t_, ptr %30, i32 0, i32 11
  %32 = load i32, ptr %31, align 4, !tbaa !123
  %33 = load ptr, ptr %2, align 8, !tbaa !81
  %34 = getelementptr inbounds nuw %struct.Buf_Man_t_, ptr %33, i32 0, i32 3
  %35 = load ptr, ptr %34, align 8, !tbaa !94
  %36 = call i32 @Abc_NtkObjNumMax(ptr noundef %35)
  %37 = sub nsw i32 %32, %36
  %38 = call i32 (ptr, ...) @printf(ptr noundef @.str.15, i32 noundef %21, i32 noundef %29, i32 noundef %37)
  %39 = load ptr, ptr %2, align 8, !tbaa !81
  %40 = getelementptr inbounds nuw %struct.Buf_Man_t_, ptr %39, i32 0, i32 18
  %41 = load ptr, ptr %40, align 8, !tbaa !133
  call void @Vec_PtrFree(ptr noundef %41)
  %42 = load ptr, ptr %2, align 8, !tbaa !81
  %43 = getelementptr inbounds nuw %struct.Buf_Man_t_, ptr %42, i32 0, i32 17
  %44 = load ptr, ptr %43, align 8, !tbaa !116
  call void @Vec_IntFree(ptr noundef %44)
  %45 = load ptr, ptr %2, align 8, !tbaa !81
  %46 = getelementptr inbounds nuw %struct.Buf_Man_t_, ptr %45, i32 0, i32 16
  %47 = load ptr, ptr %46, align 8, !tbaa !132
  call void @Vec_IntFree(ptr noundef %47)
  %48 = load ptr, ptr %2, align 8, !tbaa !81
  %49 = getelementptr inbounds nuw %struct.Buf_Man_t_, ptr %48, i32 0, i32 15
  %50 = load ptr, ptr %49, align 8, !tbaa !130
  call void @Vec_IntFree(ptr noundef %50)
  %51 = load ptr, ptr %2, align 8, !tbaa !81
  %52 = getelementptr inbounds nuw %struct.Buf_Man_t_, ptr %51, i32 0, i32 14
  %53 = load ptr, ptr %52, align 8, !tbaa !131
  call void @Vec_IntFree(ptr noundef %53)
  %54 = load ptr, ptr %2, align 8, !tbaa !81
  %55 = getelementptr inbounds nuw %struct.Buf_Man_t_, ptr %54, i32 0, i32 4
  %56 = load ptr, ptr %55, align 8, !tbaa !84
  call void @Vec_IntFree(ptr noundef %56)
  %57 = load ptr, ptr %2, align 8, !tbaa !81
  %58 = getelementptr inbounds nuw %struct.Buf_Man_t_, ptr %57, i32 0, i32 5
  %59 = load ptr, ptr %58, align 8, !tbaa !90
  call void @Vec_IntFree(ptr noundef %59)
  %60 = load ptr, ptr %2, align 8, !tbaa !81
  %61 = getelementptr inbounds nuw %struct.Buf_Man_t_, ptr %60, i32 0, i32 6
  %62 = load ptr, ptr %61, align 8, !tbaa !89
  call void @Vec_IntFree(ptr noundef %62)
  %63 = load ptr, ptr %2, align 8, !tbaa !81
  %64 = getelementptr inbounds nuw %struct.Buf_Man_t_, ptr %63, i32 0, i32 7
  %65 = load ptr, ptr %64, align 8, !tbaa !92
  call void @Vec_IntFree(ptr noundef %65)
  %66 = load ptr, ptr %2, align 8, !tbaa !81
  %67 = getelementptr inbounds nuw %struct.Buf_Man_t_, ptr %66, i32 0, i32 9
  %68 = load ptr, ptr %67, align 8, !tbaa !104
  call void @Vec_QueFree(ptr noundef %68)
  %69 = load ptr, ptr %2, align 8, !tbaa !81
  %70 = getelementptr inbounds nuw %struct.Buf_Man_t_, ptr %69, i32 0, i32 8
  %71 = load ptr, ptr %70, align 8, !tbaa !103
  call void @Vec_FltFree(ptr noundef %71)
  %72 = load ptr, ptr %2, align 8, !tbaa !81
  %73 = icmp ne ptr %72, null
  br i1 %73, label %74, label %76

74:                                               ; preds = %1
  %75 = load ptr, ptr %2, align 8, !tbaa !81
  call void @free(ptr noundef %75) #9
  store ptr null, ptr %2, align 8, !tbaa !81
  br label %77

76:                                               ; preds = %1
  br label %77

77:                                               ; preds = %76, %74
  ret void
}