; Function Attrs: nounwind uwtable
define void @Buf_ManStop(ptr noundef captures(none) %0) local_unnamed_addr #2 {
  %2 = getelementptr inbounds nuw i8, ptr %0, i64 128
  %3 = load i32, ptr %2, align 8, !tbaa !132
  %4 = getelementptr inbounds nuw i8, ptr %0, i64 132
  %5 = load i32, ptr %4, align 4, !tbaa !133
  %6 = getelementptr inbounds nuw i8, ptr %0, i64 136
  %7 = load i32, ptr %6, align 8, !tbaa !134
  %8 = getelementptr inbounds nuw i8, ptr %0, i64 140
  %9 = load i32, ptr %8, align 4, !tbaa !135
  %10 = getelementptr inbounds nuw i8, ptr %0, i64 144
  %11 = load i32, ptr %10, align 8, !tbaa !136
  %12 = tail call i32 (ptr, ...) @printf(ptr noundef nonnull dereferenceable(1) @.str.14, i32 noundef %3, i32 noundef %5, i32 noundef %7, i32 noundef %9, i32 noundef %11)
  %13 = getelementptr inbounds nuw i8, ptr %0, i64 72
  %14 = load i32, ptr %13, align 8, !tbaa !116
  %15 = getelementptr inbounds nuw i8, ptr %0, i64 16
  %16 = load ptr, ptr %15, align 8, !tbaa !87
  %17 = getelementptr i8, ptr %16, i64 32
  %.val23 = load ptr, ptr %17, align 8, !tbaa !3
  %18 = getelementptr i8, ptr %.val23, i64 4
  %.val23.val = load i32, ptr %18, align 4, !tbaa !24
  %19 = sub nsw i32 %.val23.val, %14
  %20 = getelementptr inbounds nuw i8, ptr %0, i64 76
  %21 = load i32, ptr %20, align 4, !tbaa !117
  %22 = sub nsw i32 %21, %.val23.val
  %23 = tail call i32 (ptr, ...) @printf(ptr noundef nonnull dereferenceable(1) @.str.15, i32 noundef %14, i32 noundef %19, i32 noundef %22)
  %24 = getelementptr inbounds nuw i8, ptr %0, i64 120
  %25 = load ptr, ptr %24, align 8, !tbaa !131
  %26 = getelementptr inbounds nuw i8, ptr %25, i64 8
  %27 = load ptr, ptr %26, align 8, !tbaa !26
  %.not.i = icmp eq ptr %27, null
  br i1 %.not.i, label %Vec_PtrFree.exit, label %28

28:                                               ; preds = %1
  tail call void @free(ptr noundef nonnull %27) #17
  br label %Vec_PtrFree.exit

Vec_PtrFree.exit:                                 ; preds = %1, %28
  tail call void @free(ptr noundef nonnull %25) #17
  %29 = getelementptr inbounds nuw i8, ptr %0, i64 112
  %30 = load ptr, ptr %29, align 8, !tbaa !110
  %31 = getelementptr inbounds nuw i8, ptr %30, i64 8
  %32 = load ptr, ptr %31, align 8, !tbaa !45
  %.not.i24 = icmp eq ptr %32, null
  br i1 %.not.i24, label %Vec_IntFree.exit, label %33

33:                                               ; preds = %Vec_PtrFree.exit
  tail call void @free(ptr noundef nonnull %32) #17
  br label %Vec_IntFree.exit

Vec_IntFree.exit:                                 ; preds = %Vec_PtrFree.exit, %33
  tail call void @free(ptr noundef nonnull %30) #17
  %34 = getelementptr inbounds nuw i8, ptr %0, i64 104
  %35 = load ptr, ptr %34, align 8, !tbaa !130
  %36 = getelementptr inbounds nuw i8, ptr %35, i64 8
  %37 = load ptr, ptr %36, align 8, !tbaa !45
  %.not.i25 = icmp eq ptr %37, null
  br i1 %.not.i25, label %Vec_IntFree.exit26, label %38

38:                                               ; preds = %Vec_IntFree.exit
  tail call void @free(ptr noundef nonnull %37) #17
  br label %Vec_IntFree.exit26

Vec_IntFree.exit26:                               ; preds = %Vec_IntFree.exit, %38
  tail call void @free(ptr noundef nonnull %35) #17
  %39 = getelementptr inbounds nuw i8, ptr %0, i64 96
  %40 = load ptr, ptr %39, align 8, !tbaa !128
  %41 = getelementptr inbounds nuw i8, ptr %40, i64 8
  %42 = load ptr, ptr %41, align 8, !tbaa !45
  %.not.i27 = icmp eq ptr %42, null
  br i1 %.not.i27, label %Vec_IntFree.exit28, label %43

43:                                               ; preds = %Vec_IntFree.exit26
  tail call void @free(ptr noundef nonnull %42) #17
  br label %Vec_IntFree.exit28

Vec_IntFree.exit28:                               ; preds = %Vec_IntFree.exit26, %43
  tail call void @free(ptr noundef nonnull %40) #17
  %44 = getelementptr inbounds nuw i8, ptr %0, i64 88
  %45 = load ptr, ptr %44, align 8, !tbaa !129
  %46 = getelementptr inbounds nuw i8, ptr %45, i64 8
  %47 = load ptr, ptr %46, align 8, !tbaa !45
  %.not.i29 = icmp eq ptr %47, null
  br i1 %.not.i29, label %Vec_IntFree.exit30, label %48

48:                                               ; preds = %Vec_IntFree.exit28
  tail call void @free(ptr noundef nonnull %47) #17
  br label %Vec_IntFree.exit30

Vec_IntFree.exit30:                               ; preds = %Vec_IntFree.exit28, %48
  tail call void @free(ptr noundef nonnull %45) #17
  %49 = getelementptr inbounds nuw i8, ptr %0, i64 24
  %50 = load ptr, ptr %49, align 8, !tbaa !77
  %51 = getelementptr inbounds nuw i8, ptr %50, i64 8
  %52 = load ptr, ptr %51, align 8, !tbaa !45
  %.not.i31 = icmp eq ptr %52, null
  br i1 %.not.i31, label %Vec_IntFree.exit32, label %53

53:                                               ; preds = %Vec_IntFree.exit30
  tail call void @free(ptr noundef nonnull %52) #17
  br label %Vec_IntFree.exit32

Vec_IntFree.exit32:                               ; preds = %Vec_IntFree.exit30, %53
  tail call void @free(ptr noundef nonnull %50) #17
  %54 = getelementptr inbounds nuw i8, ptr %0, i64 32
  %55 = load ptr, ptr %54, align 8, !tbaa !82
  %56 = getelementptr inbounds nuw i8, ptr %55, i64 8
  %57 = load ptr, ptr %56, align 8, !tbaa !45
  %.not.i33 = icmp eq ptr %57, null
  br i1 %.not.i33, label %Vec_IntFree.exit34, label %58

58:                                               ; preds = %Vec_IntFree.exit32
  tail call void @free(ptr noundef nonnull %57) #17
  br label %Vec_IntFree.exit34

Vec_IntFree.exit34:                               ; preds = %Vec_IntFree.exit32, %58
  tail call void @free(ptr noundef nonnull %55) #17
  %59 = getelementptr inbounds nuw i8, ptr %0, i64 40
  %60 = load ptr, ptr %59, align 8, !tbaa !81
  %61 = getelementptr inbounds nuw i8, ptr %60, i64 8
  %62 = load ptr, ptr %61, align 8, !tbaa !45
  %.not.i35 = icmp eq ptr %62, null
  br i1 %.not.i35, label %Vec_IntFree.exit36, label %63

63:                                               ; preds = %Vec_IntFree.exit34
  tail call void @free(ptr noundef nonnull %62) #17
  br label %Vec_IntFree.exit36

Vec_IntFree.exit36:                               ; preds = %Vec_IntFree.exit34, %63
  tail call void @free(ptr noundef nonnull %60) #17
  %64 = getelementptr inbounds nuw i8, ptr %0, i64 48
  %65 = load ptr, ptr %64, align 8, !tbaa !84
  %66 = getelementptr inbounds nuw i8, ptr %65, i64 8
  %67 = load ptr, ptr %66, align 8, !tbaa !45
  %.not.i37 = icmp eq ptr %67, null
  br i1 %.not.i37, label %Vec_IntFree.exit38, label %68

68:                                               ; preds = %Vec_IntFree.exit36
  tail call void @free(ptr noundef nonnull %67) #17
  br label %Vec_IntFree.exit38

Vec_IntFree.exit38:                               ; preds = %Vec_IntFree.exit36, %68
  tail call void @free(ptr noundef nonnull %65) #17
  %69 = getelementptr inbounds nuw i8, ptr %0, i64 64
  %70 = load ptr, ptr %69, align 8, !tbaa !98
  %71 = getelementptr inbounds nuw i8, ptr %70, i64 16
  %72 = load ptr, ptr %71, align 8, !tbaa !102
  %.not.i39 = icmp eq ptr %72, null
  br i1 %.not.i39, label %74, label %73

73:                                               ; preds = %Vec_IntFree.exit38
  tail call void @free(ptr noundef nonnull %72) #17
  store ptr null, ptr %71, align 8, !tbaa !102
  br label %74

74:                                               ; preds = %73, %Vec_IntFree.exit38
  %75 = getelementptr inbounds nuw i8, ptr %70, i64 8
  %76 = load ptr, ptr %75, align 8, !tbaa !105
  %.not10.i = icmp eq ptr %76, null
  br i1 %.not10.i, label %Vec_QueFree.exit, label %77

77:                                               ; preds = %74
  tail call void @free(ptr noundef nonnull %76) #17
  br label %Vec_QueFree.exit

Vec_QueFree.exit:                                 ; preds = %74, %77
  tail call void @free(ptr noundef nonnull %70) #17
  %78 = getelementptr inbounds nuw i8, ptr %0, i64 56
  %79 = load ptr, ptr %78, align 8, !tbaa !94
  %80 = getelementptr inbounds nuw i8, ptr %79, i64 8
  %81 = load ptr, ptr %80, align 8, !tbaa !95
  %.not.i40 = icmp eq ptr %81, null
  br i1 %.not.i40, label %83, label %82

82:                                               ; preds = %Vec_QueFree.exit
  tail call void @free(ptr noundef nonnull %81) #17
  br label %83

83:                                               ; preds = %Vec_QueFree.exit, %82
  tail call void @free(ptr noundef nonnull %79) #17
  tail call void @free(ptr noundef nonnull %0) #17
  ret void
}